target datalayout = "e-m:e-p270:32:32-p271:32:32-p272:64:64-i64:64-i128:128-f80:128-n8:16:32:64-S128"
target triple = "x86_64-pc-linux-gnu"

%struct.ma_delay_config = type { i32, i32, i32, i32, float, float, float }
%struct.ma_delay = type { %struct.ma_delay_config, i32, i32, ptr }

; Function Attrs: nounwind uwtable
define i32 @ma_delay_process_pcm_frames(ptr noundef %0, ptr noundef %1, ptr noundef %2, i32 noundef %3) #0 {
  %5 = alloca i32, align 4
  %6 = alloca ptr, align 8
  %7 = alloca ptr, align 8
  %8 = alloca ptr, align 8
  %9 = alloca i32, align 4
  %10 = alloca i32, align 4
  %11 = alloca i32, align 4
  %12 = alloca ptr, align 8
  %13 = alloca ptr, align 8
  %14 = alloca i32, align 4
  %15 = alloca i32, align 4
  store ptr %0, ptr %6, align 8, !tbaa !25
  store ptr %1, ptr %7, align 8, !tbaa !25
  store ptr %2, ptr %8, align 8, !tbaa !25
  store i32 %3, ptr %9, align 4, !tbaa !8
  call void @llvm.lifetime.start.p0(i64 4, ptr %10) #16
  call void @llvm.lifetime.start.p0(i64 4, ptr %11) #16
  call void @llvm.lifetime.start.p0(i64 8, ptr %12) #16
  %16 = load ptr, ptr %7, align 8, !tbaa !25
  store ptr %16, ptr %12, align 8, !tbaa !353
  call void @llvm.lifetime.start.p0(i64 8, ptr %13) #16
  %17 = load ptr, ptr %8, align 8, !tbaa !25
  store ptr %17, ptr %13, align 8, !tbaa !353
  %18 = load ptr, ptr %6, align 8, !tbaa !25
  %19 = icmp eq ptr %18, null
  br i1 %19, label %26, label %20

20:                                               ; preds = %4
  %21 = load ptr, ptr %7, align 8, !tbaa !25
  %22 = icmp eq ptr %21, null
  br i1 %22, label %26, label %23

23:                                               ; preds = %20
  %24 = load ptr, ptr %8, align 8, !tbaa !25
  %25 = icmp eq ptr %24, null
  br i1 %25, label %26, label %27

26:                                               ; preds = %23, %20, %4
  store i32 -2, ptr %5, align 4
  store i32 1, ptr %14, align 4
  br label %179

27:                                               ; preds = %23
  store i32 0, ptr %10, align 4, !tbaa !8
  br label %28

28:                                               ; preds = %175, %27
  %29 = load i32, ptr %10, align 4, !tbaa !8
  %30 = load i32, ptr %9, align 4, !tbaa !8
  %31 = icmp ult i32 %29, %30
  br i1 %31, label %32, label %178

32:                                               ; preds = %28
  store i32 0, ptr %11, align 4, !tbaa !8
  br label %33

33:                                               ; preds = %147, %32
  %34 = load i32, ptr %11, align 4, !tbaa !8
  %35 = load ptr, ptr %6, align 8, !tbaa !25
  %36 = getelementptr inbounds nuw %struct.ma_delay, ptr %35, i32 0, i32 0
  %37 = getelementptr inbounds nuw %struct.ma_delay_config, ptr %36, i32 0, i32 0
  %38 = load i32, ptr %37, align 8, !tbaa !539
  %39 = icmp ult i32 %34, %38
  br i1 %39, label %40, label %150

40:                                               ; preds = %33
  call void @llvm.lifetime.start.p0(i64 4, ptr %15) #16
  %41 = load ptr, ptr %6, align 8, !tbaa !25
  %42 = getelementptr inbounds nuw %struct.ma_delay, ptr %41, i32 0, i32 1
  %43 = load i32, ptr %42, align 4, !tbaa !537
  %44 = load ptr, ptr %6, align 8, !tbaa !25
  %45 = getelementptr inbounds nuw %struct.ma_delay, ptr %44, i32 0, i32 0
  %46 = getelementptr inbounds nuw %struct.ma_delay_config, ptr %45, i32 0, i32 0
  %47 = load i32, ptr %46, align 8, !tbaa !539
  %48 = mul i32 %43, %47
  %49 = load i32, ptr %11, align 4, !tbaa !8
  %50 = add i32 %48, %49
  store i32 %50, ptr %15, align 4, !tbaa !8
  %51 = load ptr, ptr %6, align 8, !tbaa !25
  %52 = getelementptr inbounds nuw %struct.ma_delay, ptr %51, i32 0, i32 0
  %53 = getelementptr inbounds nuw %struct.ma_delay_config, ptr %52, i32 0, i32 3
  %54 = load i32, ptr %53, align 4, !tbaa !540
  %55 = icmp ne i32 %54, 0
  br i1 %55, label %56, label %101

56:                                               ; preds = %40
  %57 = load ptr, ptr %6, align 8, !tbaa !25
  %58 = getelementptr inbounds nuw %struct.ma_delay, ptr %57, i32 0, i32 3
  %59 = load ptr, ptr %58, align 8, !tbaa !538
  %60 = load i32, ptr %15, align 4, !tbaa !8
  %61 = zext i32 %60 to i64
  %62 = getelementptr inbounds nuw float, ptr %59, i64 %61
  %63 = load float, ptr %62, align 4, !tbaa !339
  %64 = load ptr, ptr %6, align 8, !tbaa !25
  %65 = getelementptr inbounds nuw %struct.ma_delay, ptr %64, i32 0, i32 0
  %66 = getelementptr inbounds nuw %struct.ma_delay_config, ptr %65, i32 0, i32 4
  %67 = load float, ptr %66, align 8, !tbaa !541
  %68 = fmul float %63, %67
  %69 = load ptr, ptr %12, align 8, !tbaa !353
  %70 = load i32, ptr %11, align 4, !tbaa !8
  %71 = zext i32 %70 to i64
  %72 = getelementptr inbounds nuw float, ptr %69, i64 %71
  store float %68, ptr %72, align 4, !tbaa !339
  %73 = load ptr, ptr %6, align 8, !tbaa !25
  %74 = getelementptr inbounds nuw %struct.ma_delay, ptr %73, i32 0, i32 3
  %75 = load ptr, ptr %74, align 8, !tbaa !538
  %76 = load i32, ptr %15, align 4, !tbaa !8
  %77 = zext i32 %76 to i64
  %78 = getelementptr inbounds nuw float, ptr %75, i64 %77
  %79 = load float, ptr %78, align 4, !tbaa !339
  %80 = load ptr, ptr %6, align 8, !tbaa !25
  %81 = getelementptr inbounds nuw %struct.ma_delay, ptr %80, i32 0, i32 0
  %82 = getelementptr inbounds nuw %struct.ma_delay_config, ptr %81, i32 0, i32 6
  %83 = load float, ptr %82, align 8, !tbaa !542
  %84 = load ptr, ptr %13, align 8, !tbaa !353
  %85 = load i32, ptr %11, align 4, !tbaa !8
  %86 = zext i32 %85 to i64
  %87 = getelementptr inbounds nuw float, ptr %84, i64 %86
  %88 = load float, ptr %87, align 4, !tbaa !339
  %89 = load ptr, ptr %6, align 8, !tbaa !25
  %90 = getelementptr inbounds nuw %struct.ma_delay, ptr %89, i32 0, i32 0
  %91 = getelementptr inbounds nuw %struct.ma_delay_config, ptr %90, i32 0, i32 5
  %92 = load float, ptr %91, align 4, !tbaa !543
  %93 = fmul float %88, %92
  %94 = call float @llvm.fmuladd.f32(float %79, float %83, float %93)
  %95 = load ptr, ptr %6, align 8, !tbaa !25
  %96 = getelementptr inbounds nuw %struct.ma_delay, ptr %95, i32 0, i32 3
  %97 = load ptr, ptr %96, align 8, !tbaa !538
  %98 = load i32, ptr %15, align 4, !tbaa !8
  %99 = zext i32 %98 to i64
  %100 = getelementptr inbounds nuw float, ptr %97, i64 %99
  store float %94, ptr %100, align 4, !tbaa !339
  br label %146

101:                                              ; preds = %40
  %102 = load ptr, ptr %6, align 8, !tbaa !25
  %103 = getelementptr inbounds nuw %struct.ma_delay, ptr %102, i32 0, i32 3
  %104 = load ptr, ptr %103, align 8, !tbaa !538
  %105 = load i32, ptr %15, align 4, !tbaa !8
  %106 = zext i32 %105 to i64
  %107 = getelementptr inbounds nuw float, ptr %104, i64 %106
  %108 = load float, ptr %107, align 4, !tbaa !339
  %109 = load ptr, ptr %6, align 8, !tbaa !25
  %110 = getelementptr inbounds nuw %struct.ma_delay, ptr %109, i32 0, i32 0
  %111 = getelementptr inbounds nuw %struct.ma_delay_config, ptr %110, i32 0, i32 6
  %112 = load float, ptr %111, align 8, !tbaa !542
  %113 = load ptr, ptr %13, align 8, !tbaa !353
  %114 = load i32, ptr %11, align 4, !tbaa !8
  %115 = zext i32 %114 to i64
  %116 = getelementptr inbounds nuw float, ptr %113, i64 %115
  %117 = load float, ptr %116, align 4, !tbaa !339
  %118 = load ptr, ptr %6, align 8, !tbaa !25
  %119 = getelementptr inbounds nuw %struct.ma_delay, ptr %118, i32 0, i32 0
  %120 = getelementptr inbounds nuw %struct.ma_delay_config, ptr %119, i32 0, i32 5
  %121 = load float, ptr %120, align 4, !tbaa !543
  %122 = fmul float %117, %121
  %123 = call float @llvm.fmuladd.f32(float %108, float %112, float %122)
  %124 = load ptr, ptr %6, align 8, !tbaa !25
  %125 = getelementptr inbounds nuw %struct.ma_delay, ptr %124, i32 0, i32 3
  %126 = load ptr, ptr %125, align 8, !tbaa !538
  %127 = load i32, ptr %15, align 4, !tbaa !8
  %128 = zext i32 %127 to i64
  %129 = getelementptr inbounds nuw float, ptr %126, i64 %128
  store float %123, ptr %129, align 4, !tbaa !339
  %130 = load ptr, ptr %6, align 8, !tbaa !25
  %131 = getelementptr inbounds nuw %struct.ma_delay, ptr %130, i32 0, i32 3
  %132 = load ptr, ptr %131, align 8, !tbaa !538
  %133 = load i32, ptr %15, align 4, !tbaa !8
  %134 = zext i32 %133 to i64
  %135 = getelementptr inbounds nuw float, ptr %132, i64 %134
  %136 = load float, ptr %135, align 4, !tbaa !339
  %137 = load ptr, ptr %6, align 8, !tbaa !25
  %138 = getelementptr inbounds nuw %struct.ma_delay, ptr %137, i32 0, i32 0
  %139 = getelementptr inbounds nuw %struct.ma_delay_config, ptr %138, i32 0, i32 4
  %140 = load float, ptr %139, align 8, !tbaa !541
  %141 = fmul float %136, %140
  %142 = load ptr, ptr %12, align 8, !tbaa !353
  %143 = load i32, ptr %11, align 4, !tbaa !8
  %144 = zext i32 %143 to i64
  %145 = getelementptr inbounds nuw float, ptr %142, i64 %144
  store float %141, ptr %145, align 4, !tbaa !339
  br label %146

146:                                              ; preds = %101, %56
  call void @llvm.lifetime.end.p0(i64 4, ptr %15) #16
  br label %147

147:                                              ; preds = %146
  %148 = load i32, ptr %11, align 4, !tbaa !8
  %149 = add i32 %148, 1
  store i32 %149, ptr %11, align 4, !tbaa !8
  br label %33, !llvm.loop !544

150:                                              ; preds = %33
  %151 = load ptr, ptr %6, align 8, !tbaa !25
  %152 = getelementptr inbounds nuw %struct.ma_delay, ptr %151, i32 0, i32 1
  %153 = load i32, ptr %152, align 4, !tbaa !537
  %154 = add i32 %153, 1
  %155 = load ptr, ptr %6, align 8, !tbaa !25
  %156 = getelementptr inbounds nuw %struct.ma_delay, ptr %155, i32 0, i32 2
  %157 = load i32, ptr %156, align 8, !tbaa !535
  %158 = urem i32 %154, %157
  %159 = load ptr, ptr %6, align 8, !tbaa !25
  %160 = getelementptr inbounds nuw %struct.ma_delay, ptr %159, i32 0, i32 1
  store i32 %158, ptr %160, align 4, !tbaa !537
  %161 = load ptr, ptr %6, align 8, !tbaa !25
  %162 = getelementptr inbounds nuw %struct.ma_delay, ptr %161, i32 0, i32 0
  %163 = getelementptr inbounds nuw %struct.ma_delay_config, ptr %162, i32 0, i32 0
  %164 = load i32, ptr %163, align 8, !tbaa !539
  %165 = load ptr, ptr %12, align 8, !tbaa !353
  %166 = zext i32 %164 to i64
  %167 = getelementptr inbounds nuw float, ptr %165, i64 %166
  store ptr %167, ptr %12, align 8, !tbaa !353
  %168 = load ptr, ptr %6, align 8, !tbaa !25
  %169 = getelementptr inbounds nuw %struct.ma_delay, ptr %168, i32 0, i32 0
  %170 = getelementptr inbounds nuw %struct.ma_delay_config, ptr %169, i32 0, i32 0
  %171 = load i32, ptr %170, align 8, !tbaa !539
  %172 = load ptr, ptr %13, align 8, !tbaa !353
  %173 = zext i32 %171 to i64
  %174 = getelementptr inbounds nuw float, ptr %172, i64 %173
  store ptr %174, ptr %13, align 8, !tbaa !353
  br label %175

175:                                              ; preds = %150
  %176 = load i32, ptr %10, align 4, !tbaa !8
  %177 = add i32 %176, 1
  store i32 %177, ptr %10, align 4, !tbaa !8
  br label %28, !llvm.loop !545

178:                                              ; preds = %28
  store i32 0, ptr %5, align 4
  store i32 1, ptr %14, align 4
  br label %179

179:                                              ; preds = %178, %26
  call void @llvm.lifetime.end.p0(i64 8, ptr %13) #16
  call void @llvm.lifetime.end.p0(i64 8, ptr %12) #16
  call void @llvm.lifetime.end.p0(i64 4, ptr %11) #16
  call void @llvm.lifetime.end.p0(i64 4, ptr %10) #16
  %180 = load i32, ptr %5, align 4
  ret i32 %180
}