; Function Attrs: nofree norecurse nosync nounwind memory(readwrite, inaccessiblemem: none) uwtable
define range(i32 -2, 1) i32 @ma_delay_process_pcm_frames(ptr noundef captures(address_is_null) %0, ptr noundef writeonly captures(address_is_null) %1, ptr noundef readonly captures(address_is_null) %2, i32 noundef %3) local_unnamed_addr #31 {
  %5 = icmp eq ptr %0, null
  %6 = icmp eq ptr %1, null
  %or.cond = or i1 %5, %6
  %7 = icmp eq ptr %2, null
  %or.cond3 = or i1 %or.cond, %7
  br i1 %or.cond3, label %.loopexit, label %.preheader59

.preheader59:                                     ; preds = %4
  %.not = icmp eq i32 %3, 0
  br i1 %.not, label %.loopexit, label %.preheader.lr.ph

.preheader.lr.ph:                                 ; preds = %.preheader59
  %8 = load i32, ptr %0, align 8, !tbaa !686
  %.not70 = icmp eq i32 %8, 0
  %9 = getelementptr inbounds nuw i8, ptr %0, i64 16
  %10 = getelementptr inbounds nuw i8, ptr %0, i64 24
  %11 = getelementptr inbounds nuw i8, ptr %0, i64 20
  %12 = getelementptr inbounds nuw i8, ptr %0, i64 28
  %13 = getelementptr inbounds nuw i8, ptr %0, i64 32
  %14 = load i32, ptr %13, align 8, !tbaa !682
  %15 = zext i32 %8 to i64
  %.promoted = load i32, ptr %12, align 4, !tbaa !684
  br i1 %.not70, label %.preheader, label %.preheader.lr.ph.split.us

.preheader.lr.ph.split.us:                        ; preds = %.preheader.lr.ph
  %16 = getelementptr inbounds nuw i8, ptr %0, i64 40
  %17 = getelementptr inbounds nuw i8, ptr %0, i64 12
  %18 = load i32, ptr %17, align 4, !tbaa !687
  %.not.us = icmp eq i32 %18, 0
  %19 = load ptr, ptr %16, align 8, !tbaa !685
  br i1 %.not.us, label %.preheader.us.us, label %.preheader.us

.preheader.us.us:                                 ; preds = %.preheader.lr.ph.split.us, %._crit_edge.split.us.us.us
  %20 = phi i32 [ %38, %._crit_edge.split.us.us.us ], [ %.promoted, %.preheader.lr.ph.split.us ]
  %.05164.us.us = phi ptr [ %40, %._crit_edge.split.us.us.us ], [ %2, %.preheader.lr.ph.split.us ]
  %.05262.us.us = phi ptr [ %39, %._crit_edge.split.us.us.us ], [ %1, %.preheader.lr.ph.split.us ]
  %.05461.us.us = phi i32 [ %41, %._crit_edge.split.us.us.us ], [ 0, %.preheader.lr.ph.split.us ]
  %21 = mul i32 %20, %8
  br label %22

22:                                               ; preds = %22, %.preheader.us.us
  %indvars.iv77 = phi i64 [ %indvars.iv.next78, %22 ], [ 0, %.preheader.us.us ]
  %23 = trunc nuw i64 %indvars.iv77 to i32
  %24 = add i32 %21, %23
  %25 = zext i32 %24 to i64
  %26 = getelementptr inbounds nuw float, ptr %19, i64 %25
  %27 = load float, ptr %26, align 4, !tbaa !339
  %28 = load float, ptr %10, align 8, !tbaa !688
  %29 = getelementptr inbounds nuw float, ptr %.05164.us.us, i64 %indvars.iv77
  %30 = load float, ptr %29, align 4, !tbaa !339
  %31 = load float, ptr %11, align 4, !tbaa !689
  %32 = fmul float %30, %31
  %33 = tail call float @llvm.fmuladd.f32(float %27, float %28, float %32)
  store float %33, ptr %26, align 4, !tbaa !339
  %34 = load float, ptr %9, align 8, !tbaa !690
  %35 = fmul float %33, %34
  %36 = getelementptr inbounds nuw float, ptr %.05262.us.us, i64 %indvars.iv77
  store float %35, ptr %36, align 4, !tbaa !339
  %indvars.iv.next78 = add nuw nsw i64 %indvars.iv77, 1
  %exitcond81.not = icmp eq i64 %indvars.iv.next78, %15
  br i1 %exitcond81.not, label %._crit_edge.split.us.us.us, label %22, !llvm.loop !691

._crit_edge.split.us.us.us:                       ; preds = %22
  %37 = add i32 %20, 1
  %38 = urem i32 %37, %14
  %39 = getelementptr inbounds nuw float, ptr %.05262.us.us, i64 %15
  %40 = getelementptr inbounds nuw float, ptr %.05164.us.us, i64 %15
  %41 = add nuw i32 %.05461.us.us, 1
  %exitcond82.not = icmp eq i32 %41, %3
  br i1 %exitcond82.not, label %..loopexit_crit_edge, label %.preheader.us.us, !llvm.loop !692

.preheader.us:                                    ; preds = %.preheader.lr.ph.split.us, %._crit_edge.split.us67
  %42 = phi i32 [ %61, %._crit_edge.split.us67 ], [ %.promoted, %.preheader.lr.ph.split.us ]
  %.05164.us = phi ptr [ %63, %._crit_edge.split.us67 ], [ %2, %.preheader.lr.ph.split.us ]
  %.05262.us = phi ptr [ %62, %._crit_edge.split.us67 ], [ %1, %.preheader.lr.ph.split.us ]
  %.05461.us = phi i32 [ %64, %._crit_edge.split.us67 ], [ 0, %.preheader.lr.ph.split.us ]
  %43 = mul i32 %42, %8
  br label %44

44:                                               ; preds = %.preheader.us, %44
  %indvars.iv = phi i64 [ 0, %.preheader.us ], [ %indvars.iv.next, %44 ]
  %45 = trunc nuw i64 %indvars.iv to i32
  %46 = add i32 %43, %45
  %47 = zext i32 %46 to i64
  %48 = getelementptr inbounds nuw float, ptr %19, i64 %47
  %49 = load float, ptr %48, align 4, !tbaa !339
  %50 = load float, ptr %9, align 8, !tbaa !690
  %51 = fmul float %49, %50
  %52 = getelementptr inbounds nuw float, ptr %.05262.us, i64 %indvars.iv
  store float %51, ptr %52, align 4, !tbaa !339
  %53 = load float, ptr %48, align 4, !tbaa !339
  %54 = load float, ptr %10, align 8, !tbaa !688
  %55 = getelementptr inbounds nuw float, ptr %.05164.us, i64 %indvars.iv
  %56 = load float, ptr %55, align 4, !tbaa !339
  %57 = load float, ptr %11, align 4, !tbaa !689
  %58 = fmul float %56, %57
  %59 = tail call float @llvm.fmuladd.f32(float %53, float %54, float %58)
  store float %59, ptr %48, align 4, !tbaa !339
  %indvars.iv.next = add nuw nsw i64 %indvars.iv, 1
  %exitcond.not = icmp eq i64 %indvars.iv.next, %15
  br i1 %exitcond.not, label %._crit_edge.split.us67, label %44, !llvm.loop !691

._crit_edge.split.us67:                           ; preds = %44
  %60 = add i32 %42, 1
  %61 = urem i32 %60, %14
  %62 = getelementptr inbounds nuw float, ptr %.05262.us, i64 %15
  %63 = getelementptr inbounds nuw float, ptr %.05164.us, i64 %15
  %64 = add nuw i32 %.05461.us, 1
  %exitcond76.not = icmp eq i32 %64, %3
  br i1 %exitcond76.not, label %..loopexit_crit_edge, label %.preheader.us, !llvm.loop !692

.preheader:                                       ; preds = %.preheader.lr.ph, %.preheader
  %65 = phi i32 [ %67, %.preheader ], [ %.promoted, %.preheader.lr.ph ]
  %.05461 = phi i32 [ %68, %.preheader ], [ 0, %.preheader.lr.ph ]
  %66 = add i32 %65, 1
  %67 = urem i32 %66, %14
  %68 = add nuw i32 %.05461, 1
  %exitcond83.not = icmp eq i32 %68, %3
  br i1 %exitcond83.not, label %..loopexit_crit_edge, label %.preheader, !llvm.loop !692

..loopexit_crit_edge:                             ; preds = %._crit_edge.split.us67, %._crit_edge.split.us.us.us, %.preheader
  %.us-phi = phi i32 [ %67, %.preheader ], [ %38, %._crit_edge.split.us.us.us ], [ %61, %._crit_edge.split.us67 ]
  store i32 %.us-phi, ptr %12, align 4, !tbaa !684
  br label %.loopexit

.loopexit:                                        ; preds = %.preheader59, %..loopexit_crit_edge, %4
  %.0 = phi i32 [ -2, %4 ], [ 0, %..loopexit_crit_edge ], [ 0, %.preheader59 ]
  ret i32 %.0
}